target datalayout = "e-m:e-p270:32:32-p271:32:32-p272:64:64-i64:64-i128:128-f80:128-n8:16:32:64-S128"
target triple = "x86_64-pc-linux-gnu"

@async_die_counter = internal global i32 0, align 4

; Function Attrs: nounwind uwtable
define internal i32 @async_die_is_recursing() #0 {
  %1 = alloca ptr, align 8
  call void @llvm.lifetime.start.p0(i64 8, ptr %1) #13
  %2 = load i32, ptr @async_die_counter, align 4, !tbaa !16
  %3 = call ptr @pthread_getspecific(i32 noundef %2) #13
  store ptr %3, ptr %1, align 8, !tbaa !90
  %4 = load i32, ptr @async_die_counter, align 4, !tbaa !16
  %5 = call i32 @pthread_setspecific(i32 noundef %4, ptr noundef @async_die_counter) #13
  %6 = load ptr, ptr %1, align 8, !tbaa !90
  %7 = icmp ne ptr %6, null
  %8 = zext i1 %7 to i32
  call void @llvm.lifetime.end.p0(i64 8, ptr %1) #13
  ret i32 %8
}