; Function Attrs: nounwind uwtable
define internal range(i32 0, 2) i32 @async_die_is_recursing() #3 {
  %1 = load i32, ptr @async_die_counter, align 4, !tbaa !18
  %2 = tail call ptr @pthread_getspecific(i32 noundef %1) #21
  %3 = load i32, ptr @async_die_counter, align 4, !tbaa !18
  %4 = tail call i32 @pthread_setspecific(i32 noundef %3, ptr noundef nonnull @async_die_counter) #21
  %5 = icmp ne ptr %2, null
  %6 = zext i1 %5 to i32
  ret i32 %6
}